; ModuleID = 'source-C-CXX/60/484.cpp'
source_filename = "source-C-CXX/60/484.cpp"
target datalayout = "e-m:e-p270:32:32-p271:32:32-p272:64:64-i64:64-f80:128-n8:16:32:64-S128"
target triple = "x86_64-pc-linux-gnu"

%"class.std::ios_base::Init" = type { i8 }
%"class.std::basic_istream" = type { i32 (...)**, i64, %"class.std::basic_ios" }
%"class.std::basic_ios" = type { %"class.std::ios_base", %"class.std::basic_ostream"*, i8, i8, %"class.std::basic_streambuf"*, %"class.std::ctype"*, %"class.std::num_put"*, %"class.std::num_get"* }
%"class.std::ios_base" = type { i32 (...)**, i64, i64, i32, i32, i32, %"struct.std::ios_base::_Callback_list"*, %"struct.std::ios_base::_Words", [8 x %"struct.std::ios_base::_Words"], i32, %"struct.std::ios_base::_Words"*, %"class.std::locale" }
%"struct.std::ios_base::_Callback_list" = type { %"struct.std::ios_base::_Callback_list"*, void (i32, %"class.std::ios_base"*, i32)*, i32, i32 }
%"struct.std::ios_base::_Words" = type { i8*, i64 }
%"class.std::locale" = type { %"class.std::locale::_Impl"* }
%"class.std::locale::_Impl" = type { i32, %"class.std::locale::facet"**, i64, %"class.std::locale::facet"**, i8** }
%"class.std::locale::facet" = type <{ i32 (...)**, i32, [4 x i8] }>
%"class.std::basic_ostream" = type { i32 (...)**, %"class.std::basic_ios" }
%"class.std::basic_streambuf" = type { i32 (...)**, i8*, i8*, i8*, i8*, i8*, i8*, %"class.std::locale" }
%"class.std::ctype" = type <{ %"class.std::locale::facet.base", [4 x i8], %struct.__locale_struct*, i8, [7 x i8], i32*, i32*, i16*, i8, [256 x i8], [256 x i8], i8, [6 x i8] }>
%"class.std::locale::facet.base" = type <{ i32 (...)**, i32 }>
%struct.__locale_struct = type { [13 x %struct.__locale_data*], i16*, i32*, i32*, [13 x i8*] }
%struct.__locale_data = type opaque
%"class.std::num_put" = type { %"class.std::locale::facet.base", [4 x i8] }
%"class.std::num_get" = type { %"class.std::locale::facet.base", [4 x i8] }

@_ZStL8__ioinit = internal global %"class.std::ios_base::Init" zeroinitializer, align 1
@__dso_handle = external hidden global i8
@_ZSt3cin = external global %"class.std::basic_istream", align 8
@_ZSt4cout = external global %"class.std::basic_ostream", align 8
@.str = private unnamed_addr constant [2 x i8] c"1\00", align 1
@llvm.global_ctors = appending global [1 x { i32, void ()*, i8* }] [{ i32, void ()*, i8* } { i32 65535, void ()* @_GLOBAL__sub_I_484.cpp, i8* null }]

declare void @_ZNSt8ios_base4InitC1Ev(%"class.std::ios_base::Init"* nonnull align 1 dereferenceable(1)) unnamed_addr #0

; Function Attrs: nounwind
declare void @_ZNSt8ios_base4InitD1Ev(%"class.std::ios_base::Init"* nonnull align 1 dereferenceable(1)) unnamed_addr #1

; Function Attrs: nofree nounwind
declare i32 @__cxa_atexit(void (i8*)*, i8*, i8*) local_unnamed_addr #2

; Function Attrs: mustprogress norecurse sspstrong uwtable
define dso_local i32 @main() local_unnamed_addr #3 {
  %1 = alloca i32, align 4
  %2 = alloca i32, align 4
  %3 = bitcast i32* %1 to i8*
  call void @llvm.lifetime.start.p0i8(i64 4, i8* nonnull %3) #7
  %4 = call nonnull align 8 dereferenceable(16) %"class.std::basic_istream"* @_ZNSirsERi(%"class.std::basic_istream"* nonnull align 8 dereferenceable(16) @_ZSt3cin, i32* nonnull align 4 dereferenceable(4) %1)
  %5 = bitcast i32* %2 to i8*
  %6 = load i32, i32* %1, align 4, !tbaa !5
  %7 = add nsw i32 %6, -1
  store i32 %7, i32* %1, align 4, !tbaa !5
  %8 = icmp eq i32 %6, 0
  br i1 %8, label %118, label %9

9:                                                ; preds = %0, %111
  %10 = phi i32 [ %113, %111 ], [ undef, %0 ]
  call void @llvm.lifetime.start.p0i8(i64 4, i8* nonnull %5) #7
  %11 = call nonnull align 8 dereferenceable(16) %"class.std::basic_istream"* @_ZNSirsERi(%"class.std::basic_istream"* nonnull align 8 dereferenceable(16) @_ZSt3cin, i32* nonnull align 4 dereferenceable(4) %2)
  %12 = load i32, i32* %2, align 4, !tbaa !5
  %13 = add i32 %12, -1
  %14 = icmp ult i32 %13, 2
  br i1 %14, label %24, label %15

15:                                               ; preds = %9
  %16 = icmp sgt i32 %12, 2
  br i1 %16, label %17, label %80

17:                                               ; preds = %15
  %18 = add i32 %12, -2
  %19 = add i32 %12, -3
  %20 = and i32 %18, 7
  %21 = icmp ult i32 %19, 7
  br i1 %21, label %66, label %22

22:                                               ; preds = %17
  %23 = and i32 %18, -8
  br label %52

24:                                               ; preds = %9
  %25 = call nonnull align 8 dereferenceable(8) %"class.std::basic_ostream"* @_ZSt16__ostream_insertIcSt11char_traitsIcEERSt13basic_ostreamIT_T0_ES6_PKS3_l(%"class.std::basic_ostream"* nonnull align 8 dereferenceable(8) @_ZSt4cout, i8* nonnull getelementptr inbounds ([2 x i8], [2 x i8]* @.str, i64 0, i64 0), i64 1)
  %26 = load i8*, i8** bitcast (%"class.std::basic_ostream"* @_ZSt4cout to i8**), align 8, !tbaa !9
  %27 = getelementptr i8, i8* %26, i64 -24
  %28 = bitcast i8* %27 to i64*
  %29 = load i64, i64* %28, align 8
  %30 = add nsw i64 %29, 240
  %31 = getelementptr inbounds i8, i8* bitcast (%"class.std::basic_ostream"* @_ZSt4cout to i8*), i64 %30
  %32 = bitcast i8* %31 to %"class.std::ctype"**
  %33 = load %"class.std::ctype"*, %"class.std::ctype"** %32, align 8, !tbaa !11
  %34 = icmp eq %"class.std::ctype"* %33, null
  br i1 %34, label %35, label %36

35:                                               ; preds = %24
  call void @_ZSt16__throw_bad_castv() #8
  unreachable

36:                                               ; preds = %24
  %37 = getelementptr inbounds %"class.std::ctype", %"class.std::ctype"* %33, i64 0, i32 8
  %38 = load i8, i8* %37, align 8, !tbaa !15
  %39 = icmp eq i8 %38, 0
  br i1 %39, label %43, label %40

40:                                               ; preds = %36
  %41 = getelementptr inbounds %"class.std::ctype", %"class.std::ctype"* %33, i64 0, i32 9, i64 10
  %42 = load i8, i8* %41, align 1, !tbaa !17
  br label %49

43:                                               ; preds = %36
  call void @_ZNKSt5ctypeIcE13_M_widen_initEv(%"class.std::ctype"* nonnull align 8 dereferenceable(570) %33)
  %44 = bitcast %"class.std::ctype"* %33 to i8 (%"class.std::ctype"*, i8)***
  %45 = load i8 (%"class.std::ctype"*, i8)**, i8 (%"class.std::ctype"*, i8)*** %44, align 8, !tbaa !9
  %46 = getelementptr inbounds i8 (%"class.std::ctype"*, i8)*, i8 (%"class.std::ctype"*, i8)** %45, i64 6
  %47 = load i8 (%"class.std::ctype"*, i8)*, i8 (%"class.std::ctype"*, i8)** %46, align 8
  %48 = call signext i8 %47(%"class.std::ctype"* nonnull align 8 dereferenceable(570) %33, i8 signext 10)
  br label %49

49:                                               ; preds = %40, %43
  %50 = phi i8 [ %42, %40 ], [ %48, %43 ]
  %51 = call nonnull align 8 dereferenceable(8) %"class.std::basic_ostream"* @_ZNSo3putEc(%"class.std::basic_ostream"* nonnull align 8 dereferenceable(8) @_ZSt4cout, i8 signext %50)
  br label %111

52:                                               ; preds = %52, %22
  %53 = phi i32 [ 1, %22 ], [ %63, %52 ]
  %54 = phi i32 [ 1, %22 ], [ %62, %52 ]
  %55 = phi i32 [ %23, %22 ], [ %64, %52 ]
  %56 = add nsw i32 %53, %54
  %57 = add nsw i32 %56, %53
  %58 = add nsw i32 %57, %56
  %59 = add nsw i32 %58, %57
  %60 = add nsw i32 %59, %58
  %61 = add nsw i32 %60, %59
  %62 = add nsw i32 %61, %60
  %63 = add nsw i32 %62, %61
  %64 = add i32 %55, -8
  %65 = icmp eq i32 %64, 0
  br i1 %65, label %66, label %52, !llvm.loop !18

66:                                               ; preds = %52, %17
  %67 = phi i32 [ undef, %17 ], [ %63, %52 ]
  %68 = phi i32 [ 1, %17 ], [ %63, %52 ]
  %69 = phi i32 [ 1, %17 ], [ %62, %52 ]
  %70 = icmp eq i32 %20, 0
  br i1 %70, label %78, label %71

71:                                               ; preds = %66, %71
  %72 = phi i32 [ %75, %71 ], [ %68, %66 ]
  %73 = phi i32 [ %72, %71 ], [ %69, %66 ]
  %74 = phi i32 [ %76, %71 ], [ %20, %66 ]
  %75 = add nsw i32 %72, %73
  %76 = add i32 %74, -1
  %77 = icmp eq i32 %76, 0
  br i1 %77, label %78, label %71, !llvm.loop !20

78:                                               ; preds = %71, %66
  %79 = phi i32 [ %67, %66 ], [ %75, %71 ]
  store i32 2, i32* %2, align 4, !tbaa !5
  br label %80

80:                                               ; preds = %78, %15
  %81 = phi i32 [ %79, %78 ], [ %10, %15 ]
  %82 = call nonnull align 8 dereferenceable(8) %"class.std::basic_ostream"* @_ZNSolsEi(%"class.std::basic_ostream"* nonnull align 8 dereferenceable(8) @_ZSt4cout, i32 %81)
  %83 = bitcast %"class.std::basic_ostream"* %82 to i8**
  %84 = load i8*, i8** %83, align 8, !tbaa !9
  %85 = getelementptr i8, i8* %84, i64 -24
  %86 = bitcast i8* %85 to i64*
  %87 = load i64, i64* %86, align 8
  %88 = bitcast %"class.std::basic_ostream"* %82 to i8*
  %89 = add nsw i64 %87, 240
  %90 = getelementptr inbounds i8, i8* %88, i64 %89
  %91 = bitcast i8* %90 to %"class.std::ctype"**
  %92 = load %"class.std::ctype"*, %"class.std::ctype"** %91, align 8, !tbaa !11
  %93 = icmp eq %"class.std::ctype"* %92, null
  br i1 %93, label %94, label %95

94:                                               ; preds = %80
  call void @_ZSt16__throw_bad_castv() #8
  unreachable

95:                                               ; preds = %80
  %96 = getelementptr inbounds %"class.std::ctype", %"class.std::ctype"* %92, i64 0, i32 8
  %97 = load i8, i8* %96, align 8, !tbaa !15
  %98 = icmp eq i8 %97, 0
  br i1 %98, label %102, label %99

99:                                               ; preds = %95
  %100 = getelementptr inbounds %"class.std::ctype", %"class.std::ctype"* %92, i64 0, i32 9, i64 10
  %101 = load i8, i8* %100, align 1, !tbaa !17
  br label %108

102:                                              ; preds = %95
  call void @_ZNKSt5ctypeIcE13_M_widen_initEv(%"class.std::ctype"* nonnull align 8 dereferenceable(570) %92)
  %103 = bitcast %"class.std::ctype"* %92 to i8 (%"class.std::ctype"*, i8)***
  %104 = load i8 (%"class.std::ctype"*, i8)**, i8 (%"class.std::ctype"*, i8)*** %103, align 8, !tbaa !9
  %105 = getelementptr inbounds i8 (%"class.std::ctype"*, i8)*, i8 (%"class.std::ctype"*, i8)** %104, i64 6
  %106 = load i8 (%"class.std::ctype"*, i8)*, i8 (%"class.std::ctype"*, i8)** %105, align 8
  %107 = call signext i8 %106(%"class.std::ctype"* nonnull align 8 dereferenceable(570) %92, i8 signext 10)
  br label %108

108:                                              ; preds = %99, %102
  %109 = phi i8 [ %101, %99 ], [ %107, %102 ]
  %110 = call nonnull align 8 dereferenceable(8) %"class.std::basic_ostream"* @_ZNSo3putEc(%"class.std::basic_ostream"* nonnull align 8 dereferenceable(8) %82, i8 signext %109)
  br label %111

111:                                              ; preds = %108, %49
  %112 = phi %"class.std::basic_ostream"* [ %110, %108 ], [ %51, %49 ]
  %113 = phi i32 [ %81, %108 ], [ %10, %49 ]
  %114 = call nonnull align 8 dereferenceable(8) %"class.std::basic_ostream"* @_ZNSo5flushEv(%"class.std::basic_ostream"* nonnull align 8 dereferenceable(8) %112)
  call void @llvm.lifetime.end.p0i8(i64 4, i8* nonnull %5) #7
  %115 = load i32, i32* %1, align 4, !tbaa !5
  %116 = add nsw i32 %115, -1
  store i32 %116, i32* %1, align 4, !tbaa !5
  %117 = icmp eq i32 %115, 0
  br i1 %117, label %118, label %9, !llvm.loop !22

118:                                              ; preds = %111, %0
  call void @llvm.lifetime.end.p0i8(i64 4, i8* nonnull %3) #7
  ret i32 0
}

; Function Attrs: argmemonly mustprogress nofree nosync nounwind willreturn
declare void @llvm.lifetime.start.p0i8(i64 immarg, i8* nocapture) #4

declare nonnull align 8 dereferenceable(16) %"class.std::basic_istream"* @_ZNSirsERi(%"class.std::basic_istream"* nonnull align 8 dereferenceable(16), i32* nonnull align 4 dereferenceable(4)) local_unnamed_addr #0

declare nonnull align 8 dereferenceable(8) %"class.std::basic_ostream"* @_ZNSolsEi(%"class.std::basic_ostream"* nonnull align 8 dereferenceable(8), i32) local_unnamed_addr #0

; Function Attrs: argmemonly mustprogress nofree nosync nounwind willreturn
declare void @llvm.lifetime.end.p0i8(i64 immarg, i8* nocapture) #4

declare nonnull align 8 dereferenceable(8) %"class.std::basic_ostream"* @_ZSt16__ostream_insertIcSt11char_traitsIcEERSt13basic_ostreamIT_T0_ES6_PKS3_l(%"class.std::basic_ostream"* nonnull align 8 dereferenceable(8), i8*, i64) local_unnamed_addr #0

declare nonnull align 8 dereferenceable(8) %"class.std::basic_ostream"* @_ZNSo3putEc(%"class.std::basic_ostream"* nonnull align 8 dereferenceable(8), i8 signext) local_unnamed_addr #0

declare nonnull align 8 dereferenceable(8) %"class.std::basic_ostream"* @_ZNSo5flushEv(%"class.std::basic_ostream"* nonnull align 8 dereferenceable(8)) local_unnamed_addr #0

; Function Attrs: noreturn
declare void @_ZSt16__throw_bad_castv() local_unnamed_addr #5

declare void @_ZNKSt5ctypeIcE13_M_widen_initEv(%"class.std::ctype"* nonnull align 8 dereferenceable(570)) local_unnamed_addr #0

; Function Attrs: sspstrong uwtable
define internal void @_GLOBAL__sub_I_484.cpp() #6 section ".text.startup" {
  tail call void @_ZNSt8ios_base4InitC1Ev(%"class.std::ios_base::Init"* nonnull align 1 dereferenceable(1) @_ZStL8__ioinit)
  %1 = tail call i32 @__cxa_atexit(void (i8*)* bitcast (void (%"class.std::ios_base::Init"*)* @_ZNSt8ios_base4InitD1Ev to void (i8*)*), i8* getelementptr inbounds (%"class.std::ios_base::Init", %"class.std::ios_base::Init"* @_ZStL8__ioinit, i64 0, i32 0), i8* nonnull @__dso_handle) #7
  ret void
}


!llvm.module.flags = !{!0, !1, !2, !3}
!llvm.ident = !{!4}

!0 = !{i32 1, !"wchar_size", i32 4}
!1 = !{i32 7, !"PIC Level", i32 2}
!2 = !{i32 7, !"PIE Level", i32 2}
!3 = !{i32 7, !"uwtable", i32 1}
!4 = !{!"clang version 13.0.0"}
!5 = !{!6, !6, i64 0}
!6 = !{!"int", !7, i64 0}
!7 = !{!"omnipotent char", !8, i64 0}
!8 = !{!"Simple C++ TBAA"}
!9 = !{!10, !10, i64 0}
!10 = !{!"vtable pointer", !8, i64 0}
!11 = !{!12, !13, i64 240}
!12 = !{!"_ZTSSt9basic_iosIcSt11char_traitsIcEE", !13, i64 216, !7, i64 224, !14, i64 225, !13, i64 232, !13, i64 240, !13, i64 248, !13, i64 256}
!13 = !{!"any pointer", !7, i64 0}
!14 = !{!"bool", !7, i64 0}
!15 = !{!16, !7, i64 56}
!16 = !{!"_ZTSSt5ctypeIcE", !13, i64 16, !14, i64 24, !13, i64 32, !13, i64 40, !13, i64 48, !7, i64 56, !7, i64 57, !7, i64 313, !7, i64 569}
!17 = !{!7, !7, i64 0}
!18 = distinct !{!18, !19}
!19 = !{!"llvm.loop.mustprogress"}
!20 = distinct !{!20, !21}
!21 = !{!"llvm.loop.unroll.disable"}
!22 = distinct !{!22, !19}
